target datalayout = "e-m:e-p270:32:32-p271:32:32-p272:64:64-i64:64-i128:128-f80:128-n8:16:32:64-S128"
target triple = "x86_64-pc-linux-gnu"

@.str.1 = private unnamed_addr constant [10 x i8] c"snapmgr.c\00", align 1
@.str.47 = private unnamed_addr constant [35 x i8] c"invalid snapshot data in file \22%s\22\00", align 1
@__func__.parseXidFromText = private unnamed_addr constant [17 x i8] c"parseXidFromText\00", align 1
@.str.66 = private unnamed_addr constant [3 x i8] c"%u\00", align 1

; Function Attrs: nounwind uwtable
define internal i32 @parseXidFromText(ptr noundef %0, ptr noundef %1, ptr noundef %2) #0 {
  %4 = alloca ptr, align 8
  %5 = alloca ptr, align 8
  %6 = alloca ptr, align 8
  %7 = alloca ptr, align 8
  %8 = alloca i32, align 4
  %9 = alloca i32, align 4
  store ptr %0, ptr %4, align 8
  store ptr %1, ptr %5, align 8
  store ptr %2, ptr %6, align 8
  call void @llvm.lifetime.start.p0(i64 8, ptr %7) #14
  %10 = load ptr, ptr %5, align 8
  %11 = load ptr, ptr %10, align 8
  store ptr %11, ptr %7, align 8
  call void @llvm.lifetime.start.p0(i64 4, ptr %8) #14
  %12 = load ptr, ptr %4, align 8
  %13 = call i64 @strlen(ptr noundef %12) #15
  %14 = trunc i64 %13 to i32
  store i32 %14, ptr %8, align 4
  call void @llvm.lifetime.start.p0(i64 4, ptr %9) #14
  %15 = load ptr, ptr %7, align 8
  %16 = load ptr, ptr %4, align 8
  %17 = load i32, ptr %8, align 4
  %18 = sext i32 %17 to i64
  %19 = call i32 @strncmp(ptr noundef %15, ptr noundef %16, i64 noundef %18) #15
  %20 = icmp ne i32 %19, 0
  br i1 %20, label %21, label %34

21:                                               ; preds = %3
  br label %22

22:                                               ; preds = %21
  br i1 true, label %23, label %25

23:                                               ; preds = %22
  %24 = call zeroext i1 @errstart_cold(i32 noundef 21, ptr noundef null) #13
  br i1 %24, label %27, label %31

25:                                               ; preds = %22
  %26 = call zeroext i1 @errstart(i32 noundef 21, ptr noundef null)
  br i1 %26, label %27, label %31

27:                                               ; preds = %25, %23
  %28 = call i32 @errcode(i32 noundef 33685634)
  %29 = load ptr, ptr %6, align 8
  %30 = call i32 (ptr, ...) @errmsg(ptr noundef @.str.47, ptr noundef %29)
  call void @errfinish(ptr noundef @.str.1, i32 noundef 1269, ptr noundef @__func__.parseXidFromText)
  br label %31

31:                                               ; preds = %27, %25, %23
  unreachable

32:                                               ; No predecessors!
  br label %33

33:                                               ; preds = %32
  br label %34

34:                                               ; preds = %33, %3
  %35 = load i32, ptr %8, align 4
  %36 = load ptr, ptr %7, align 8
  %37 = sext i32 %35 to i64
  %38 = getelementptr inbounds i8, ptr %36, i64 %37
  store ptr %38, ptr %7, align 8
  %39 = load ptr, ptr %7, align 8
  %40 = call i32 (ptr, ptr, ...) @__isoc99_sscanf(ptr noundef %39, ptr noundef @.str.66, ptr noundef %9) #14
  %41 = icmp ne i32 %40, 1
  br i1 %41, label %42, label %55

42:                                               ; preds = %34
  br label %43

43:                                               ; preds = %42
  br i1 true, label %44, label %46

44:                                               ; preds = %43
  %45 = call zeroext i1 @errstart_cold(i32 noundef 21, ptr noundef null) #13
  br i1 %45, label %48, label %52

46:                                               ; preds = %43
  %47 = call zeroext i1 @errstart(i32 noundef 21, ptr noundef null)
  br i1 %47, label %48, label %52

48:                                               ; preds = %46, %44
  %49 = call i32 @errcode(i32 noundef 33685634)
  %50 = load ptr, ptr %6, align 8
  %51 = call i32 (ptr, ...) @errmsg(ptr noundef @.str.47, ptr noundef %50)
  call void @errfinish(ptr noundef @.str.1, i32 noundef 1274, ptr noundef @__func__.parseXidFromText)
  br label %52

52:                                               ; preds = %48, %46, %44
  unreachable

53:                                               ; No predecessors!
  br label %54

54:                                               ; preds = %53
  br label %55

55:                                               ; preds = %54, %34
  %56 = load ptr, ptr %7, align 8
  %57 = call ptr @strchr(ptr noundef %56, i32 noundef 10) #15
  store ptr %57, ptr %7, align 8
  %58 = load ptr, ptr %7, align 8
  %59 = icmp ne ptr %58, null
  br i1 %59, label %73, label %60

60:                                               ; preds = %55
  br label %61

61:                                               ; preds = %60
  br i1 true, label %62, label %64

62:                                               ; preds = %61
  %63 = call zeroext i1 @errstart_cold(i32 noundef 21, ptr noundef null) #13
  br i1 %63, label %66, label %70

64:                                               ; preds = %61
  %65 = call zeroext i1 @errstart(i32 noundef 21, ptr noundef null)
  br i1 %65, label %66, label %70

66:                                               ; preds = %64, %62
  %67 = call i32 @errcode(i32 noundef 33685634)
  %68 = load ptr, ptr %6, align 8
  %69 = call i32 (ptr, ...) @errmsg(ptr noundef @.str.47, ptr noundef %68)
  call void @errfinish(ptr noundef @.str.1, i32 noundef 1279, ptr noundef @__func__.parseXidFromText)
  br label %70

70:                                               ; preds = %66, %64, %62
  unreachable

71:                                               ; No predecessors!
  br label %72

72:                                               ; preds = %71
  br label %73

73:                                               ; preds = %72, %55
  %74 = load ptr, ptr %7, align 8
  %75 = getelementptr inbounds i8, ptr %74, i64 1
  %76 = load ptr, ptr %5, align 8
  store ptr %75, ptr %76, align 8
  %77 = load i32, ptr %9, align 4
  call void @llvm.lifetime.end.p0(i64 4, ptr %9) #14
  call void @llvm.lifetime.end.p0(i64 4, ptr %8) #14
  call void @llvm.lifetime.end.p0(i64 8, ptr %7) #14
  ret i32 %77
}