; Function Attrs: nounwind uwtable
define internal fastcc i32 @parseXidFromText(ptr noundef readonly captures(none) %0, ptr noundef nonnull captures(none) %1, ptr noundef nonnull %2) unnamed_addr #0 {
  %4 = alloca i32, align 4
  %5 = load ptr, ptr %1, align 8
  %6 = tail call i64 @strlen(ptr noundef nonnull dereferenceable(1) %0) #19
  call void @llvm.lifetime.start.p0(i64 4, ptr nonnull %4) #18
  %sext = shl i64 %6, 32
  %7 = ashr exact i64 %sext, 32
  %8 = tail call i32 @strncmp(ptr noundef %5, ptr noundef nonnull %0, i64 noundef %7) #19
  %.not = icmp eq i32 %8, 0
  br i1 %.not, label %13, label %9

9:                                                ; preds = %3
  %10 = tail call zeroext i1 @errstart_cold(i32 noundef 21, ptr noundef null) #17
  tail call void @llvm.assume(i1 %10)
  %11 = tail call i32 @errcode(i32 noundef 33685634) #18
  %12 = tail call i32 (ptr, ...) @errmsg(ptr noundef nonnull @.str.47, ptr noundef nonnull %2) #18
  tail call void @errfinish(ptr noundef nonnull @.str.1, i32 noundef 1269, ptr noundef nonnull @__func__.parseXidFromText) #18
  unreachable

13:                                               ; preds = %3
  %14 = getelementptr inbounds i8, ptr %5, i64 %7
  %15 = call i32 (ptr, ptr, ...) @__isoc99_sscanf(ptr noundef %14, ptr noundef nonnull @.str.66, ptr noundef nonnull %4) #18
  %.not14 = icmp eq i32 %15, 1
  br i1 %.not14, label %20, label %16

16:                                               ; preds = %13
  %17 = call zeroext i1 @errstart_cold(i32 noundef 21, ptr noundef null) #17
  call void @llvm.assume(i1 %17)
  %18 = call i32 @errcode(i32 noundef 33685634) #18
  %19 = call i32 (ptr, ...) @errmsg(ptr noundef nonnull @.str.47, ptr noundef nonnull %2) #18
  call void @errfinish(ptr noundef nonnull @.str.1, i32 noundef 1274, ptr noundef nonnull @__func__.parseXidFromText) #18
  unreachable

20:                                               ; preds = %13
  %21 = call ptr @strchr(ptr noundef nonnull dereferenceable(1) %14, i32 noundef 10) #19
  %.not15 = icmp eq ptr %21, null
  br i1 %.not15, label %22, label %26

22:                                               ; preds = %20
  %23 = call zeroext i1 @errstart_cold(i32 noundef 21, ptr noundef null) #17
  call void @llvm.assume(i1 %23)
  %24 = call i32 @errcode(i32 noundef 33685634) #18
  %25 = call i32 (ptr, ...) @errmsg(ptr noundef nonnull @.str.47, ptr noundef nonnull %2) #18
  call void @errfinish(ptr noundef nonnull @.str.1, i32 noundef 1279, ptr noundef nonnull @__func__.parseXidFromText) #18
  unreachable

26:                                               ; preds = %20
  %27 = getelementptr inbounds nuw i8, ptr %21, i64 1
  store ptr %27, ptr %1, align 8
  %28 = load i32, ptr %4, align 4
  call void @llvm.lifetime.end.p0(i64 4, ptr nonnull %4) #18
  ret i32 %28
}